target datalayout = "e-m:e-p270:32:32-p271:32:32-p272:64:64-i64:64-i128:128-f80:128-n8:16:32:64-S128"
target triple = "x86_64-pc-linux-gnu"

; Function Attrs: mustprogress uwtable
define void @_ZN3net30QuicMultipathSentPacketManager21OnConnectionMigrationEhNS_21PeerAddressChangeTypeE(ptr noundef nonnull align 8 dereferenceable(40) %0, i8 noundef zeroext %1, i32 noundef %2) unnamed_addr #0 align 2 {
  %4 = alloca ptr, align 8
  %5 = alloca i8, align 1
  %6 = alloca i32, align 4
  %7 = alloca ptr, align 8
  %8 = alloca i32, align 4
  store ptr %0, ptr %4, align 8, !tbaa !3
  store i8 %1, ptr %5, align 1, !tbaa !42
  store i32 %2, ptr %6, align 4, !tbaa !138
  %9 = load ptr, ptr %4, align 8
  call void @llvm.lifetime.start.p0(i64 8, ptr %7) #15
  %10 = load i8, ptr %5, align 1, !tbaa !42
  %11 = call noundef ptr @_ZNK3net30QuicMultipathSentPacketManager38MaybeGetSentPacketManagerForActivePathEh(ptr noundef nonnull align 8 dereferenceable(40) %9, i8 noundef zeroext %10)
  store ptr %11, ptr %7, align 8, !tbaa !8
  %12 = load ptr, ptr %7, align 8, !tbaa !8
  %13 = icmp eq ptr %12, null
  br i1 %13, label %14, label %16

14:                                               ; preds = %3
  %15 = load i8, ptr %5, align 1, !tbaa !42
  call void @_ZN3net30QuicMultipathSentPacketManager24OnUnrecoverablePathErrorEh(ptr noundef nonnull align 8 dereferenceable(40) %9, i8 noundef zeroext %15)
  store i32 1, ptr %8, align 4
  br label %23

16:                                               ; preds = %3
  %17 = load ptr, ptr %7, align 8, !tbaa !8
  %18 = load i8, ptr %5, align 1, !tbaa !42
  %19 = load i32, ptr %6, align 4, !tbaa !138
  %20 = load ptr, ptr %17, align 8, !tbaa !12
  %21 = getelementptr inbounds ptr, ptr %20, i64 28
  %22 = load ptr, ptr %21, align 8
  call void %22(ptr noundef nonnull align 8 dereferenceable(8) %17, i8 noundef zeroext %18, i32 noundef %19)
  store i32 0, ptr %8, align 4
  br label %23

23:                                               ; preds = %16, %14
  call void @llvm.lifetime.end.p0(i64 8, ptr %7) #15
  %24 = load i32, ptr %8, align 4
  switch i32 %24, label %26 [
    i32 0, label %25
    i32 1, label %25
  ]

25:                                               ; preds = %23, %23
  ret void

26:                                               ; preds = %23
  unreachable
}