; Function Attrs: mustprogress uwtable
define void @_ZN3net30QuicMultipathSentPacketManager21OnConnectionMigrationEhNS_21PeerAddressChangeTypeE(ptr noundef nonnull readonly align 8 captures(none) dereferenceable(40) %0, i8 noundef zeroext %1, i32 noundef %2) unnamed_addr #0 align 2 {
  %4 = tail call noundef ptr @_ZNK3net30QuicMultipathSentPacketManager38MaybeGetSentPacketManagerForActivePathEh(ptr noundef nonnull align 8 dereferenceable(40) %0, i8 noundef zeroext %1)
  %5 = icmp eq ptr %4, null
  br i1 %5, label %6, label %7

6:                                                ; preds = %3
  tail call void @_ZN3net30QuicMultipathSentPacketManager24OnUnrecoverablePathErrorEh(ptr noundef nonnull align 8 dereferenceable(40) %0, i8 noundef zeroext %1)
  br label %11

7:                                                ; preds = %3
  %8 = load ptr, ptr %4, align 8, !tbaa !3
  %9 = getelementptr inbounds nuw i8, ptr %8, i64 224
  %10 = load ptr, ptr %9, align 8
  tail call void %10(ptr noundef nonnull align 8 dereferenceable(8) %4, i8 noundef zeroext %1, i32 noundef %2)
  br label %11

11:                                               ; preds = %7, %6
  ret void
}